target datalayout = "e-m:e-p270:32:32-p271:32:32-p272:64:64-i64:64-i128:128-f80:128-n8:16:32:64-S128"
target triple = "x86_64-unknown-linux-gnu"

%class.btVector3 = type { [4 x float] }
%class.btHingeConstraint = type { %class.btTypedConstraint, [3 x %class.btJacobianEntry], [3 x %class.btJacobianEntry], %class.btTransform, %class.btTransform, float, float, %class.btAngularLimit, float, float, float, float, i8, i8, i8, i8, i8, float, i32, float, float, float, float }
%class.btTypedConstraint = type { ptr, %struct.btTypedObject, i32, %union.anon.0, float, i8, i8, i32, ptr, ptr, float, float, ptr }
%struct.btTypedObject = type { i32 }
%union.anon.0 = type { ptr }
%class.btJacobianEntry = type { %class.btVector3, %class.btVector3, %class.btVector3, %class.btVector3, %class.btVector3, float }
%class.btTransform = type { %class.btMatrix3x3, %class.btVector3 }
%class.btMatrix3x3 = type { [3 x %class.btVector3] }
%class.btAngularLimit = type <{ float, float, float, float, float, float, float, i8, [3 x i8] }>
%class.btCollisionObject = type <{ ptr, %class.btTransform, %class.btTransform, %class.btVector3, %class.btVector3, %class.btVector3, i32, float, ptr, ptr, ptr, ptr, i32, i32, i32, i32, i32, float, float, float, float, float, float, float, i32, [4 x i8], ptr, i32, i32, i32, float, float, float, i32, [4 x i8], %class.btAlignedObjectArray, i32, %class.btVector3, [4 x i8] }>
%class.btAlignedObjectArray = type <{ %class.btAlignedAllocator, [3 x i8], i32, i32, [4 x i8], ptr, i8, [7 x i8] }>
%class.btAlignedAllocator = type { i8 }
%class.btRigidBody = type { %class.btCollisionObject.base, %class.btMatrix3x3, %class.btVector3, %class.btVector3, float, %class.btVector3, %class.btVector3, %class.btVector3, %class.btVector3, %class.btVector3, %class.btVector3, float, float, i8, float, float, float, float, float, float, ptr, %class.btAlignedObjectArray.1, i32, i32, %class.btVector3, %class.btVector3, %class.btVector3, %class.btVector3, %class.btVector3, %class.btVector3, i32, i32 }
%class.btCollisionObject.base = type <{ ptr, %class.btTransform, %class.btTransform, %class.btVector3, %class.btVector3, %class.btVector3, i32, float, ptr, ptr, ptr, ptr, i32, i32, i32, i32, i32, float, float, float, float, float, float, float, i32, [4 x i8], ptr, i32, i32, i32, float, float, float, i32, [4 x i8], %class.btAlignedObjectArray, i32, %class.btVector3 }>
%class.btAlignedObjectArray.1 = type <{ %class.btAlignedAllocator.2, [3 x i8], i32, i32, [4 x i8], ptr, i8, [7 x i8] }>
%class.btAlignedAllocator.2 = type { i8 }

; Function Attrs: mustprogress nounwind uwtable
define linkonce_odr dso_local noundef nonnull align 4 dereferenceable(16) ptr @_ZNK11btRigidBody18getAngularVelocityEv(ptr noundef nonnull align 8 dereferenceable(744) %this) #1 comdat align 2 {
entry:
  %this.addr = alloca ptr, align 8
  store ptr %this, ptr %this.addr, align 8
  %this1 = load ptr, ptr %this.addr, align 8
  %m_angularVelocity = getelementptr inbounds %class.btRigidBody, ptr %this1, i32 0, i32 3
  ret ptr %m_angularVelocity
}

; Function Attrs: mustprogress nounwind uwtable
define linkonce_odr dso_local noundef nonnull align 4 dereferenceable(64) ptr @_ZNK11btRigidBody24getCenterOfMassTransformEv(ptr noundef nonnull align 8 dereferenceable(744) %this) #1 comdat align 2 {
entry:
  %this.addr = alloca ptr, align 8
  store ptr %this, ptr %this.addr, align 8
  %this1 = load ptr, ptr %this.addr, align 8
  %m_worldTransform = getelementptr inbounds %class.btCollisionObject, ptr %this1, i32 0, i32 1
  ret ptr %m_worldTransform
}

; Function Attrs: mustprogress uwtable
define dso_local void @_ZN17btHingeConstraint8getInfo2EPN17btTypedConstraint17btConstraintInfo2E(ptr noundef nonnull align 8 dereferenceable(792) %this, ptr noundef %info) unnamed_addr #4 align 2 {
entry:
  %this.addr = alloca ptr, align 8
  %info.addr = alloca ptr, align 8
  store ptr %this, ptr %this.addr, align 8
  store ptr %info, ptr %info.addr, align 8
  %this1 = load ptr, ptr %this.addr, align 8
  %m_useOffsetForConstraintFrame = getelementptr inbounds %class.btHingeConstraint, ptr %this1, i32 0, i32 15
  %0 = load i8, ptr %m_useOffsetForConstraintFrame, align 1
  %tobool = trunc i8 %0 to i1
  br i1 %tobool, label %if.then, label %if.else

if.then:                                          ; preds = %entry
  %1 = load ptr, ptr %info.addr, align 8
  %m_rbA = getelementptr inbounds %class.btTypedConstraint, ptr %this1, i32 0, i32 8
  %2 = load ptr, ptr %m_rbA, align 8
  %call = call noundef nonnull align 4 dereferenceable(64) ptr @_ZNK11btRigidBody24getCenterOfMassTransformEv(ptr noundef nonnull align 8 dereferenceable(744) %2)
  %m_rbB = getelementptr inbounds %class.btTypedConstraint, ptr %this1, i32 0, i32 9
  %3 = load ptr, ptr %m_rbB, align 8
  %call2 = call noundef nonnull align 4 dereferenceable(64) ptr @_ZNK11btRigidBody24getCenterOfMassTransformEv(ptr noundef nonnull align 8 dereferenceable(744) %3)
  %m_rbA3 = getelementptr inbounds %class.btTypedConstraint, ptr %this1, i32 0, i32 8
  %4 = load ptr, ptr %m_rbA3, align 8
  %call4 = call noundef nonnull align 4 dereferenceable(16) ptr @_ZNK11btRigidBody18getAngularVelocityEv(ptr noundef nonnull align 8 dereferenceable(744) %4)
  %m_rbB5 = getelementptr inbounds %class.btTypedConstraint, ptr %this1, i32 0, i32 9
  %5 = load ptr, ptr %m_rbB5, align 8
  %call6 = call noundef nonnull align 4 dereferenceable(16) ptr @_ZNK11btRigidBody18getAngularVelocityEv(ptr noundef nonnull align 8 dereferenceable(744) %5)
  call void @_ZN17btHingeConstraint32getInfo2InternalUsingFrameOffsetEPN17btTypedConstraint17btConstraintInfo2ERK11btTransformS5_RK9btVector3S8_(ptr noundef nonnull align 8 dereferenceable(792) %this1, ptr noundef %1, ptr noundef nonnull align 4 dereferenceable(64) %call, ptr noundef nonnull align 4 dereferenceable(64) %call2, ptr noundef nonnull align 4 dereferenceable(16) %call4, ptr noundef nonnull align 4 dereferenceable(16) %call6)
  br label %if.end

if.else:                                          ; preds = %entry
  %6 = load ptr, ptr %info.addr, align 8
  %m_rbA7 = getelementptr inbounds %class.btTypedConstraint, ptr %this1, i32 0, i32 8
  %7 = load ptr, ptr %m_rbA7, align 8
  %call8 = call noundef nonnull align 4 dereferenceable(64) ptr @_ZNK11btRigidBody24getCenterOfMassTransformEv(ptr noundef nonnull align 8 dereferenceable(744) %7)
  %m_rbB9 = getelementptr inbounds %class.btTypedConstraint, ptr %this1, i32 0, i32 9
  %8 = load ptr, ptr %m_rbB9, align 8
  %call10 = call noundef nonnull align 4 dereferenceable(64) ptr @_ZNK11btRigidBody24getCenterOfMassTransformEv(ptr noundef nonnull align 8 dereferenceable(744) %8)
  %m_rbA11 = getelementptr inbounds %class.btTypedConstraint, ptr %this1, i32 0, i32 8
  %9 = load ptr, ptr %m_rbA11, align 8
  %call12 = call noundef nonnull align 4 dereferenceable(16) ptr @_ZNK11btRigidBody18getAngularVelocityEv(ptr noundef nonnull align 8 dereferenceable(744) %9)
  %m_rbB13 = getelementptr inbounds %class.btTypedConstraint, ptr %this1, i32 0, i32 9
  %10 = load ptr, ptr %m_rbB13, align 8
  %call14 = call noundef nonnull align 4 dereferenceable(16) ptr @_ZNK11btRigidBody18getAngularVelocityEv(ptr noundef nonnull align 8 dereferenceable(744) %10)
  call void @_ZN17btHingeConstraint16getInfo2InternalEPN17btTypedConstraint17btConstraintInfo2ERK11btTransformS5_RK9btVector3S8_(ptr noundef nonnull align 8 dereferenceable(792) %this1, ptr noundef %6, ptr noundef nonnull align 4 dereferenceable(64) %call8, ptr noundef nonnull align 4 dereferenceable(64) %call10, ptr noundef nonnull align 4 dereferenceable(16) %call12, ptr noundef nonnull align 4 dereferenceable(16) %call14)
  br label %if.end

if.end:                                           ; preds = %if.else, %if.then
  ret void
}