; Function Attrs: mustprogress uwtable
define dso_local void @_ZN17btHingeConstraint8getInfo2EPN17btTypedConstraint17btConstraintInfo2E(ptr noundef nonnull align 8 dereferenceable(792) %this, ptr nocapture noundef readonly %info) unnamed_addr #4 align 2 {
entry:
  %m_useOffsetForConstraintFrame = getelementptr inbounds i8, ptr %this, i64 763
  %0 = load i8, ptr %m_useOffsetForConstraintFrame, align 1
  %1 = and i8 %0, 1
  %tobool.not = icmp eq i8 %1, 0
  %m_rbA7 = getelementptr inbounds i8, ptr %this, i64 40
  %2 = load ptr, ptr %m_rbA7, align 8
  %m_worldTransform.i4 = getelementptr inbounds i8, ptr %2, i64 8
  %m_rbB9 = getelementptr inbounds i8, ptr %this, i64 48
  %3 = load ptr, ptr %m_rbB9, align 8
  %m_worldTransform.i5 = getelementptr inbounds i8, ptr %3, i64 8
  %m_angularVelocity.i6 = getelementptr inbounds i8, ptr %2, i64 436
  %m_angularVelocity.i7 = getelementptr inbounds i8, ptr %3, i64 436
  br i1 %tobool.not, label %if.else, label %if.then

if.then:                                          ; preds = %entry
  tail call void @_ZN17btHingeConstraint32getInfo2InternalUsingFrameOffsetEPN17btTypedConstraint17btConstraintInfo2ERK11btTransformS5_RK9btVector3S8_(ptr noundef nonnull align 8 dereferenceable(792) %this, ptr noundef %info, ptr noundef nonnull align 4 dereferenceable(64) %m_worldTransform.i4, ptr noundef nonnull align 4 dereferenceable(64) %m_worldTransform.i5, ptr noundef nonnull align 4 dereferenceable(16) %m_angularVelocity.i6, ptr noundef nonnull align 4 dereferenceable(16) %m_angularVelocity.i7)
  br label %if.end

if.else:                                          ; preds = %entry
  tail call void @_ZN17btHingeConstraint16getInfo2InternalEPN17btTypedConstraint17btConstraintInfo2ERK11btTransformS5_RK9btVector3S8_(ptr noundef nonnull align 8 dereferenceable(792) %this, ptr noundef %info, ptr noundef nonnull align 4 dereferenceable(64) %m_worldTransform.i4, ptr noundef nonnull align 4 dereferenceable(64) %m_worldTransform.i5, ptr noundef nonnull align 4 dereferenceable(16) %m_angularVelocity.i6, ptr noundef nonnull align 4 dereferenceable(16) %m_angularVelocity.i7)
  br label %if.end

if.end:                                           ; preds = %if.else, %if.then
  ret void
}